; Function Attrs: mustprogress nofree norecurse nosync nounwind willreturn memory(argmem: read) uwtable
define dso_local ptr @data_get_string(ptr noundef readonly captures(address_is_null, ret: address, provenance) %0) local_unnamed_addr #6 {
  %.not = icmp eq ptr %0, null
  br i1 %.not, label %10, label %2

2:                                                ; preds = %1
  %3 = getelementptr inbounds nuw i8, ptr %0, i64 4
  %4 = load i32, ptr %3, align 4
  switch i32 %4, label %10 [
    i32 65285, label %5
    i32 65286, label %8
  ]

5:                                                ; preds = %2
  %6 = getelementptr inbounds nuw i8, ptr %0, i64 8
  %7 = load ptr, ptr %6, align 8
  br label %10

8:                                                ; preds = %2
  %9 = getelementptr inbounds nuw i8, ptr %0, i64 8
  br label %10

10:                                               ; preds = %2, %1, %8, %5
  %.0 = phi ptr [ %7, %5 ], [ %9, %8 ], [ null, %1 ], [ null, %2 ]
  ret ptr %.0
}